; ModuleID = '23/104.c'
source_filename = "23/104.c"
target datalayout = "e-m:e-p270:32:32-p271:32:32-p272:64:64-i64:64-f80:128-n8:16:32:64-S128"
target triple = "x86_64-pc-linux-gnu"

@.str = private unnamed_addr constant [3 x i8] c"%c\00", align 1
@.str.1 = private unnamed_addr constant [2 x i8] c" \00", align 1

; Function Attrs: noinline nounwind uwtable
define dso_local void @main() #0 {
  %1 = alloca [100 x i8], align 16
  %2 = alloca i32, align 4
  %3 = alloca i32, align 4
  %4 = alloca i32, align 4
  %5 = alloca i32, align 4
  %6 = alloca [100 x i32], align 16
  store i32 0, i32* %3, align 4
  store i32 0, i32* %4, align 4
  store i32 0, i32* %5, align 4
  %7 = bitcast [100 x i32]* %6 to i8*
  call void @llvm.memset.p0i8.i64(i8* align 16 %7, i8 0, i64 400, i1 false)
  %8 = getelementptr inbounds [100 x i8], [100 x i8]* %1, i64 0, i64 0
  %9 = call i32 (i8*, ...) bitcast (i32 (...)* @gets to i32 (i8*, ...)*)(i8* %8)
  store i32 0, i32* %2, align 4
  br label %10

10:                                               ; preds = %25, %0
  %11 = load i32, i32* %2, align 4
  %12 = icmp slt i32 %11, 100
  br i1 %12, label %13, label %28

13:                                               ; preds = %10
  %14 = load i32, i32* %2, align 4
  %15 = sext i32 %14 to i64
  %16 = getelementptr inbounds [100 x i8], [100 x i8]* %1, i64 0, i64 %15
  %17 = load i8, i8* %16, align 1
  %18 = sext i8 %17 to i32
  %19 = icmp ne i32 %18, 0
  br i1 %19, label %20, label %23

20:                                               ; preds = %13
  %21 = load i32, i32* %5, align 4
  %22 = add nsw i32 %21, 1
  store i32 %22, i32* %5, align 4
  br label %24

23:                                               ; preds = %13
  br label %28

24:                                               ; preds = %20
  br label %25

25:                                               ; preds = %24
  %26 = load i32, i32* %2, align 4
  %27 = add nsw i32 %26, 1
  store i32 %27, i32* %2, align 4
  br label %10

28:                                               ; preds = %23, %10
  %29 = load i32, i32* %5, align 4
  %30 = sub nsw i32 %29, 1
  store i32 %30, i32* %2, align 4
  br label %31

31:                                               ; preds = %51, %28
  %32 = load i32, i32* %2, align 4
  %33 = icmp sge i32 %32, 0
  br i1 %33, label %34, label %54

34:                                               ; preds = %31
  %35 = load i32, i32* %2, align 4
  %36 = sext i32 %35 to i64
  %37 = getelementptr inbounds [100 x i8], [100 x i8]* %1, i64 0, i64 %36
  %38 = load i8, i8* %37, align 1
  %39 = sext i8 %38 to i32
  %40 = icmp ne i32 %39, 32
  br i1 %40, label %41, label %47

41:                                               ; preds = %34
  %42 = load i32, i32* %3, align 4
  %43 = sext i32 %42 to i64
  %44 = getelementptr inbounds [100 x i32], [100 x i32]* %6, i64 0, i64 %43
  %45 = load i32, i32* %44, align 4
  %46 = add nsw i32 %45, 1
  store i32 %46, i32* %44, align 4
  br label %50

47:                                               ; preds = %34
  %48 = load i32, i32* %3, align 4
  %49 = add nsw i32 %48, 1
  store i32 %49, i32* %3, align 4
  br label %50

50:                                               ; preds = %47, %41
  br label %51

51:                                               ; preds = %50
  %52 = load i32, i32* %2, align 4
  %53 = add nsw i32 %52, -1
  store i32 %53, i32* %2, align 4
  br label %31

54:                                               ; preds = %31
  store i32 0, i32* %4, align 4
  br label %55

55:                                               ; preds = %89, %54
  %56 = load i32, i32* %4, align 4
  %57 = load i32, i32* %3, align 4
  %58 = icmp slt i32 %56, %57
  br i1 %58, label %59, label %92

59:                                               ; preds = %55
  %60 = load i32, i32* %5, align 4
  %61 = load i32, i32* %4, align 4
  %62 = sext i32 %61 to i64
  %63 = getelementptr inbounds [100 x i32], [100 x i32]* %6, i64 0, i64 %62
  %64 = load i32, i32* %63, align 4
  %65 = sub nsw i32 %60, %64
  store i32 %65, i32* %2, align 4
  br label %66

66:                                               ; preds = %77, %59
  %67 = load i32, i32* %2, align 4
  %68 = load i32, i32* %5, align 4
  %69 = icmp slt i32 %67, %68
  br i1 %69, label %70, label %80

70:                                               ; preds = %66
  %71 = load i32, i32* %2, align 4
  %72 = sext i32 %71 to i64
  %73 = getelementptr inbounds [100 x i8], [100 x i8]* %1, i64 0, i64 %72
  %74 = load i8, i8* %73, align 1
  %75 = sext i8 %74 to i32
  %76 = call i32 (i8*, ...) @printf(i8* getelementptr inbounds ([3 x i8], [3 x i8]* @.str, i64 0, i64 0), i32 %75)
  br label %77

77:                                               ; preds = %70
  %78 = load i32, i32* %2, align 4
  %79 = add nsw i32 %78, 1
  store i32 %79, i32* %2, align 4
  br label %66

80:                                               ; preds = %66
  %81 = load i32, i32* %5, align 4
  %82 = load i32, i32* %4, align 4
  %83 = sext i32 %82 to i64
  %84 = getelementptr inbounds [100 x i32], [100 x i32]* %6, i64 0, i64 %83
  %85 = load i32, i32* %84, align 4
  %86 = sub nsw i32 %81, %85
  %87 = sub nsw i32 %86, 1
  store i32 %87, i32* %5, align 4
  %88 = call i32 (i8*, ...) @printf(i8* getelementptr inbounds ([2 x i8], [2 x i8]* @.str.1, i64 0, i64 0))
  br label %89

89:                                               ; preds = %80
  %90 = load i32, i32* %4, align 4
  %91 = add nsw i32 %90, 1
  store i32 %91, i32* %4, align 4
  br label %55

92:                                               ; preds = %55
  %93 = load i32, i32* %5, align 4
  %94 = load i32, i32* %4, align 4
  %95 = sext i32 %94 to i64
  %96 = getelementptr inbounds [100 x i32], [100 x i32]* %6, i64 0, i64 %95
  %97 = load i32, i32* %96, align 4
  %98 = sub nsw i32 %93, %97
  store i32 %98, i32* %2, align 4
  br label %99

99:                                               ; preds = %110, %92
  %100 = load i32, i32* %2, align 4
  %101 = load i32, i32* %5, align 4
  %102 = icmp slt i32 %100, %101
  br i1 %102, label %103, label %113

103:                                              ; preds = %99
  %104 = load i32, i32* %2, align 4
  %105 = sext i32 %104 to i64
  %106 = getelementptr inbounds [100 x i8], [100 x i8]* %1, i64 0, i64 %105
  %107 = load i8, i8* %106, align 1
  %108 = sext i8 %107 to i32
  %109 = call i32 (i8*, ...) @printf(i8* getelementptr inbounds ([3 x i8], [3 x i8]* @.str, i64 0, i64 0), i32 %108)
  br label %110

110:                                              ; preds = %103
  %111 = load i32, i32* %2, align 4
  %112 = add nsw i32 %111, 1
  store i32 %112, i32* %2, align 4
  br label %99

113:                                              ; preds = %99
  ret void
}

; Function Attrs: argmemonly nounwind willreturn
declare void @llvm.memset.p0i8.i64(i8* nocapture writeonly, i8, i64, i1 immarg) #1

declare dso_local i32 @gets(...) #2

declare dso_local i32 @printf(i8*, ...) #2


!llvm.module.flags = !{!0}
!llvm.ident = !{!1}

!0 = !{i32 1, !"wchar_size", i32 4}
!1 = !{!"clang version 10.0.0-4ubuntu1 "}
